(dp0
S'backdir'
p1
S'/opt/back'
p2
sS'localpath'
p3
S'E:/new_svn_code/php'
p4
sS'nocake'
p5
I0
sS'connext_set'
p6
(lp7
(lp8
S'root@119.39.48.91:10002'
p9
aS'JiaDe~!234'
p10
aS'/data/wwwroot'
p11
aS'root:root'
p12
aa(lp13
S'root@119.39.48.91:10001'
p14
aS'JiaDe~!234'
p15
aS'/data/wwwroot/run'
p16
aS'root:root'
p17
aasS'puttype'
p18
I1
sS'cal'
p19
S'-275'
p20
sS'cake'
p21
I1
sS'update_num'
p22
S'509-520'
p23
s.